target datalayout = "e-m:e-p270:32:32-p271:32:32-p272:64:64-i64:64-i128:128-f80:128-n8:16:32:64-S128"
target triple = "x86_64-unknown-linux-gnu"

%"class.icu_75::UnicodeString" = type { %"class.icu_75::Replaceable", %"union.icu_75::UnicodeString::StackBufferOrFields" }
%"class.icu_75::Replaceable" = type { %"class.icu_75::UObject" }
%"class.icu_75::UObject" = type { ptr }
%"union.icu_75::UnicodeString::StackBufferOrFields" = type { %struct.anon.0, [32 x i8] }
%struct.anon.0 = type { i16, i32, i32, ptr }

@_ZN6icu_75L10gMetaZonesE = internal constant [10 x i8] c"metaZones\00", align 1
@_ZN6icu_75L16gMapTimezonesTagE = internal constant [13 x i8] c"mapTimezones\00", align 1
@_ZN6icu_75L9gWorldTagE = internal constant [4 x i8] c"001\00", align 1

; Function Attrs: mustprogress nounwind uwtable
define linkonce_odr noundef i32 @_ZNK6icu_7513UnicodeString14getShortLengthEv(ptr noundef nonnull align 8 dereferenceable(64) %this) #1 comdat align 2 {
entry:
  %this.addr = alloca ptr, align 8
  store ptr %this, ptr %this.addr, align 8
  %this1 = load ptr, ptr %this.addr, align 8
  %fUnion = getelementptr inbounds %"class.icu_75::UnicodeString", ptr %this1, i32 0, i32 1
  %fLengthAndFlags = getelementptr inbounds %struct.anon.0, ptr %fUnion, i32 0, i32 0
  %0 = load i16, ptr %fLengthAndFlags, align 8
  %conv = sext i16 %0 to i32
  %shr = ashr i32 %conv, 5
  ret i32 %shr
}

; Function Attrs: mustprogress nounwind uwtable
define linkonce_odr noundef signext i8 @_ZNK6icu_7513UnicodeString14hasShortLengthEv(ptr noundef nonnull align 8 dereferenceable(64) %this) #1 comdat align 2 {
entry:
  %this.addr = alloca ptr, align 8
  store ptr %this, ptr %this.addr, align 8
  %this1 = load ptr, ptr %this.addr, align 8
  %fUnion = getelementptr inbounds %"class.icu_75::UnicodeString", ptr %this1, i32 0, i32 1
  %fLengthAndFlags = getelementptr inbounds %struct.anon.0, ptr %fUnion, i32 0, i32 0
  %0 = load i16, ptr %fLengthAndFlags, align 8
  %conv = sext i16 %0 to i32
  %cmp = icmp sge i32 %conv, 0
  %conv2 = zext i1 %cmp to i8
  ret i8 %conv2
}

; Function Attrs: mustprogress uwtable
define linkonce_odr noundef nonnull align 8 dereferenceable(64) ptr @_ZN6icu_7513UnicodeString5setToEPKDsi(ptr noundef nonnull align 8 dereferenceable(64) %this, ptr noundef %srcChars, i32 noundef %srcLength) #0 comdat align 2 {
entry:
  %this.addr = alloca ptr, align 8
  %srcChars.addr = alloca ptr, align 8
  %srcLength.addr = alloca i32, align 4
  store ptr %this, ptr %this.addr, align 8
  store ptr %srcChars, ptr %srcChars.addr, align 8
  store i32 %srcLength, ptr %srcLength.addr, align 4
  %this1 = load ptr, ptr %this.addr, align 8
  call void @_ZN6icu_7513UnicodeString7unBogusEv(ptr noundef nonnull align 8 dereferenceable(64) %this1)
  %call = call noundef i32 @_ZNK6icu_7513UnicodeString6lengthEv(ptr noundef nonnull align 8 dereferenceable(64) %this1)
  %0 = load ptr, ptr %srcChars.addr, align 8
  %1 = load i32, ptr %srcLength.addr, align 4
  %call2 = call noundef nonnull align 8 dereferenceable(64) ptr @_ZN6icu_7513UnicodeString9doReplaceEiiPKDsii(ptr noundef nonnull align 8 dereferenceable(64) %this1, i32 noundef 0, i32 noundef %call, ptr noundef %0, i32 noundef 0, i32 noundef %1)
  ret ptr %call2
}

; Function Attrs: mustprogress nounwind uwtable
define internal noundef signext i8 @_ZL9U_SUCCESS10UErrorCode(i32 noundef %code) #1 {
entry:
  %code.addr = alloca i32, align 4
  store i32 %code, ptr %code.addr, align 4
  %0 = load i32, ptr %code.addr, align 4
  %cmp = icmp sle i32 %0, 0
  %conv = zext i1 %cmp to i8
  ret i8 %conv
}

; Function Attrs: mustprogress uwtable
define linkonce_odr noundef i32 @_ZNK6icu_7513UnicodeString6lengthEv(ptr noundef nonnull align 8 dereferenceable(64) %this) #0 comdat align 2 {
entry:
  %this.addr = alloca ptr, align 8
  store ptr %this, ptr %this.addr, align 8
  %this1 = load ptr, ptr %this.addr, align 8
  %call = call noundef signext i8 @_ZNK6icu_7513UnicodeString14hasShortLengthEv(ptr noundef nonnull align 8 dereferenceable(64) %this1)
  %tobool = icmp ne i8 %call, 0
  br i1 %tobool, label %cond.true, label %cond.false

cond.true:                                        ; preds = %entry
  %call2 = call noundef i32 @_ZNK6icu_7513UnicodeString14getShortLengthEv(ptr noundef nonnull align 8 dereferenceable(64) %this1)
  br label %cond.end

cond.false:                                       ; preds = %entry
  %fUnion = getelementptr inbounds %"class.icu_75::UnicodeString", ptr %this1, i32 0, i32 1
  %fLength = getelementptr inbounds %struct.anon.0, ptr %fUnion, i32 0, i32 1
  %0 = load i32, ptr %fLength, align 4
  br label %cond.end

cond.end:                                         ; preds = %cond.false, %cond.true
  %cond = phi i32 [ %call2, %cond.true ], [ %0, %cond.false ]
  ret i32 %cond
}

; Function Attrs: mustprogress nounwind uwtable
define linkonce_odr noundef signext i8 @_ZNK6icu_7513UnicodeString7isBogusEv(ptr noundef nonnull align 8 dereferenceable(64) %this) #1 comdat align 2 {
entry:
  %this.addr = alloca ptr, align 8
  store ptr %this, ptr %this.addr, align 8
  %this1 = load ptr, ptr %this.addr, align 8
  %fUnion = getelementptr inbounds %"class.icu_75::UnicodeString", ptr %this1, i32 0, i32 1
  %fLengthAndFlags = getelementptr inbounds %struct.anon.0, ptr %fUnion, i32 0, i32 0
  %0 = load i16, ptr %fLengthAndFlags, align 8
  %conv = sext i16 %0 to i32
  %and = and i32 %conv, 1
  %conv2 = trunc i32 %and to i8
  ret i8 %conv2
}

; Function Attrs: mustprogress uwtable
define noundef nonnull align 8 dereferenceable(64) ptr @_ZN6icu_758ZoneMeta19getZoneIdByMetazoneERKNS_13UnicodeStringES3_RS1_(ptr noundef nonnull align 8 dereferenceable(64) %mzid, ptr noundef nonnull align 8 dereferenceable(64) %region, ptr noundef nonnull align 8 dereferenceable(64) %result) #0 align 2 {
entry:
  %retval = alloca ptr, align 8
  %mzid.addr = alloca ptr, align 8
  %region.addr = alloca ptr, align 8
  %result.addr = alloca ptr, align 8
  %status = alloca i32, align 4
  %tzid = alloca ptr, align 8
  %tzidLen = alloca i32, align 4
  %keyBuf = alloca [129 x i8], align 16
  %keyLen = alloca i32, align 4
  %rb = alloca ptr, align 8
  store ptr %mzid, ptr %mzid.addr, align 8
  store ptr %region, ptr %region.addr, align 8
  store ptr %result, ptr %result.addr, align 8
  store i32 0, ptr %status, align 4
  store ptr null, ptr %tzid, align 8
  store i32 0, ptr %tzidLen, align 4
  store i32 0, ptr %keyLen, align 4
  %0 = load ptr, ptr %mzid.addr, align 8
  %call = call noundef signext i8 @_ZNK6icu_7513UnicodeString7isBogusEv(ptr noundef nonnull align 8 dereferenceable(64) %0)
  %tobool = icmp ne i8 %call, 0
  br i1 %tobool, label %if.then, label %lor.lhs.false

lor.lhs.false:                                    ; preds = %entry
  %1 = load ptr, ptr %mzid.addr, align 8
  %call1 = call noundef i32 @_ZNK6icu_7513UnicodeString6lengthEv(ptr noundef nonnull align 8 dereferenceable(64) %1)
  %cmp = icmp sgt i32 %call1, 128
  br i1 %cmp, label %if.then, label %if.end

if.then:                                          ; preds = %lor.lhs.false, %entry
  %2 = load ptr, ptr %result.addr, align 8
  call void @_ZN6icu_7513UnicodeString10setToBogusEv(ptr noundef nonnull align 8 dereferenceable(64) %2)
  %3 = load ptr, ptr %result.addr, align 8
  store ptr %3, ptr %retval, align 8
  br label %return

if.end:                                           ; preds = %lor.lhs.false
  %4 = load ptr, ptr %mzid.addr, align 8
  %5 = load ptr, ptr %mzid.addr, align 8
  %call2 = call noundef i32 @_ZNK6icu_7513UnicodeString6lengthEv(ptr noundef nonnull align 8 dereferenceable(64) %5)
  %arraydecay = getelementptr inbounds [129 x i8], ptr %keyBuf, i64 0, i64 0
  %call3 = call noundef i32 @_ZNK6icu_7513UnicodeString7extractEiiPciNS0_10EInvariantE(ptr noundef nonnull align 8 dereferenceable(64) %4, i32 noundef 0, i32 noundef %call2, ptr noundef %arraydecay, i32 noundef 129, i32 noundef 0)
  store i32 %call3, ptr %keyLen, align 4
  %6 = load i32, ptr %keyLen, align 4
  %idxprom = sext i32 %6 to i64
  %arrayidx = getelementptr inbounds [129 x i8], ptr %keyBuf, i64 0, i64 %idxprom
  store i8 0, ptr %arrayidx, align 1
  %call4 = call ptr @ures_openDirect_75(ptr noundef null, ptr noundef @_ZN6icu_75L10gMetaZonesE, ptr noundef %status)
  store ptr %call4, ptr %rb, align 8
  %7 = load ptr, ptr %rb, align 8
  %8 = load ptr, ptr %rb, align 8
  %call5 = call ptr @ures_getByKey_75(ptr noundef %7, ptr noundef @_ZN6icu_75L16gMapTimezonesTagE, ptr noundef %8, ptr noundef %status)
  %9 = load ptr, ptr %rb, align 8
  %arraydecay6 = getelementptr inbounds [129 x i8], ptr %keyBuf, i64 0, i64 0
  %10 = load ptr, ptr %rb, align 8
  %call7 = call ptr @ures_getByKey_75(ptr noundef %9, ptr noundef %arraydecay6, ptr noundef %10, ptr noundef %status)
  %11 = load i32, ptr %status, align 4
  %call8 = call noundef signext i8 @_ZL9U_SUCCESS10UErrorCode(i32 noundef %11)
  %tobool9 = icmp ne i8 %call8, 0
  br i1 %tobool9, label %if.then10, label %if.end34

if.then10:                                        ; preds = %if.end
  %12 = load ptr, ptr %region.addr, align 8
  %call11 = call noundef i32 @_ZNK6icu_7513UnicodeString6lengthEv(ptr noundef nonnull align 8 dereferenceable(64) %12)
  %cmp12 = icmp eq i32 %call11, 2
  br i1 %cmp12, label %if.then16, label %lor.lhs.false13

lor.lhs.false13:                                  ; preds = %if.then10
  %13 = load ptr, ptr %region.addr, align 8
  %call14 = call noundef i32 @_ZNK6icu_7513UnicodeString6lengthEv(ptr noundef nonnull align 8 dereferenceable(64) %13)
  %cmp15 = icmp eq i32 %call14, 3
  br i1 %cmp15, label %if.then16, label %if.end27

if.then16:                                        ; preds = %lor.lhs.false13, %if.then10
  %14 = load ptr, ptr %region.addr, align 8
  %15 = load ptr, ptr %region.addr, align 8
  %call17 = call noundef i32 @_ZNK6icu_7513UnicodeString6lengthEv(ptr noundef nonnull align 8 dereferenceable(64) %15)
  %arraydecay18 = getelementptr inbounds [129 x i8], ptr %keyBuf, i64 0, i64 0
  %call19 = call noundef i32 @_ZNK6icu_7513UnicodeString7extractEiiPciNS0_10EInvariantE(ptr noundef nonnull align 8 dereferenceable(64) %14, i32 noundef 0, i32 noundef %call17, ptr noundef %arraydecay18, i32 noundef 129, i32 noundef 0)
  store i32 %call19, ptr %keyLen, align 4
  %16 = load i32, ptr %keyLen, align 4
  %idxprom20 = sext i32 %16 to i64
  %arrayidx21 = getelementptr inbounds [129 x i8], ptr %keyBuf, i64 0, i64 %idxprom20
  store i8 0, ptr %arrayidx21, align 1
  %17 = load ptr, ptr %rb, align 8
  %arraydecay22 = getelementptr inbounds [129 x i8], ptr %keyBuf, i64 0, i64 0
  %call23 = call ptr @ures_getStringByKey_75(ptr noundef %17, ptr noundef %arraydecay22, ptr noundef %tzidLen, ptr noundef %status)
  store ptr %call23, ptr %tzid, align 8
  %18 = load i32, ptr %status, align 4
  %cmp24 = icmp eq i32 %18, 2
  br i1 %cmp24, label %if.then25, label %if.end26

if.then25:                                        ; preds = %if.then16
  store i32 0, ptr %status, align 4
  br label %if.end26

if.end26:                                         ; preds = %if.then25, %if.then16
  br label %if.end27

if.end27:                                         ; preds = %if.end26, %lor.lhs.false13
  %19 = load i32, ptr %status, align 4
  %call28 = call noundef signext i8 @_ZL9U_SUCCESS10UErrorCode(i32 noundef %19)
  %tobool29 = icmp ne i8 %call28, 0
  br i1 %tobool29, label %land.lhs.true, label %if.end33

land.lhs.true:                                    ; preds = %if.end27
  %20 = load ptr, ptr %tzid, align 8
  %cmp30 = icmp eq ptr %20, null
  br i1 %cmp30, label %if.then31, label %if.end33

if.then31:                                        ; preds = %land.lhs.true
  %21 = load ptr, ptr %rb, align 8
  %call32 = call ptr @ures_getStringByKey_75(ptr noundef %21, ptr noundef @_ZN6icu_75L9gWorldTagE, ptr noundef %tzidLen, ptr noundef %status)
  store ptr %call32, ptr %tzid, align 8
  br label %if.end33

if.end33:                                         ; preds = %if.then31, %land.lhs.true, %if.end27
  br label %if.end34

if.end34:                                         ; preds = %if.end33, %if.end
  %22 = load ptr, ptr %rb, align 8
  call void @ures_close_75(ptr noundef %22)
  %23 = load ptr, ptr %tzid, align 8
  %cmp35 = icmp eq ptr %23, null
  br i1 %cmp35, label %if.then36, label %if.else

if.then36:                                        ; preds = %if.end34
  %24 = load ptr, ptr %result.addr, align 8
  call void @_ZN6icu_7513UnicodeString10setToBogusEv(ptr noundef nonnull align 8 dereferenceable(64) %24)
  br label %if.end38

if.else:                                          ; preds = %if.end34
  %25 = load ptr, ptr %result.addr, align 8
  %26 = load ptr, ptr %tzid, align 8
  %27 = load i32, ptr %tzidLen, align 4
  %call37 = call noundef nonnull align 8 dereferenceable(64) ptr @_ZN6icu_7513UnicodeString5setToEPKDsi(ptr noundef nonnull align 8 dereferenceable(64) %25, ptr noundef %26, i32 noundef %27)
  br label %if.end38

if.end38:                                         ; preds = %if.else, %if.then36
  %28 = load ptr, ptr %result.addr, align 8
  store ptr %28, ptr %retval, align 8
  br label %return

return:                                           ; preds = %if.end38, %if.then
  %29 = load ptr, ptr %retval, align 8
  ret ptr %29
}