; Function Attrs: mustprogress uwtable
define noundef nonnull align 8 dereferenceable(64) ptr @_ZN6icu_758ZoneMeta19getZoneIdByMetazoneERKNS_13UnicodeStringES3_RS1_(ptr noundef nonnull align 8 dereferenceable(64) %mzid, ptr noundef nonnull align 8 dereferenceable(64) %region, ptr noundef nonnull returned align 8 dereferenceable(64) %result) local_unnamed_addr #0 align 2 {
entry:
  %status = alloca i32, align 4
  %tzidLen = alloca i32, align 4
  %keyBuf = alloca [129 x i8], align 16
  store i32 0, ptr %status, align 4
  store i32 0, ptr %tzidLen, align 4
  %fUnion.i = getelementptr inbounds i8, ptr %mzid, i64 8
  %0 = load i16, ptr %fUnion.i, align 8
  %conv2.i44 = and i16 %0, 1
  %tobool.not = icmp eq i16 %conv2.i44, 0
  br i1 %tobool.not, label %lor.lhs.false, label %if.then

lor.lhs.false:                                    ; preds = %entry
  %cmp.i.i = icmp slt i16 %0, 0
  %1 = ashr i16 %0, 5
  %shr.i.i = sext i16 %1 to i32
  %fLength.i = getelementptr inbounds i8, ptr %mzid, i64 12
  %2 = load i32, ptr %fLength.i, align 4
  %cond.i = select i1 %cmp.i.i, i32 %2, i32 %shr.i.i
  %cmp = icmp sgt i32 %cond.i, 128
  br i1 %cmp, label %if.then, label %if.end

if.then:                                          ; preds = %lor.lhs.false, %entry
  tail call void @_ZN6icu_7513UnicodeString10setToBogusEv(ptr noundef nonnull align 8 dereferenceable(64) %result)
  br label %return

if.end:                                           ; preds = %lor.lhs.false
  %call3 = call noundef i32 @_ZNK6icu_7513UnicodeString7extractEiiPciNS0_10EInvariantE(ptr noundef nonnull align 8 dereferenceable(64) %mzid, i32 noundef 0, i32 noundef %cond.i, ptr noundef nonnull %keyBuf, i32 noundef 129, i32 noundef 0)
  %idxprom = sext i32 %call3 to i64
  %arrayidx = getelementptr inbounds [129 x i8], ptr %keyBuf, i64 0, i64 %idxprom
  store i8 0, ptr %arrayidx, align 1
  %call4 = call ptr @ures_openDirect_75(ptr noundef null, ptr noundef nonnull @_ZN6icu_75L10gMetaZonesE, ptr noundef nonnull %status)
  %call5 = call ptr @ures_getByKey_75(ptr noundef %call4, ptr noundef nonnull @_ZN6icu_75L16gMapTimezonesTagE, ptr noundef %call4, ptr noundef nonnull %status)
  %call7 = call ptr @ures_getByKey_75(ptr noundef %call4, ptr noundef nonnull %keyBuf, ptr noundef %call4, ptr noundef nonnull %status)
  %3 = load i32, ptr %status, align 4
  %cmp.i = icmp sgt i32 %3, 0
  br i1 %cmp.i, label %if.end34.thread, label %if.then10

if.end34.thread:                                  ; preds = %if.end
  call void @ures_close_75(ptr noundef %call4)
  br label %if.then36

if.then10:                                        ; preds = %if.end
  %fUnion.i.i25 = getelementptr inbounds i8, ptr %region, i64 8
  %4 = load i16, ptr %fUnion.i.i25, align 8
  %cmp.i.i26 = icmp slt i16 %4, 0
  %5 = ashr i16 %4, 5
  %shr.i.i27 = sext i16 %5 to i32
  %fLength.i28 = getelementptr inbounds i8, ptr %region, i64 12
  %6 = load i32, ptr %fLength.i28, align 4
  %cond.i29 = select i1 %cmp.i.i26, i32 %6, i32 %shr.i.i27
  %7 = and i32 %cond.i29, -2
  %switch = icmp eq i32 %7, 2
  br i1 %switch, label %if.then16, label %if.end27

if.then16:                                        ; preds = %if.then10
  %call19 = call noundef i32 @_ZNK6icu_7513UnicodeString7extractEiiPciNS0_10EInvariantE(ptr noundef nonnull align 8 dereferenceable(64) %region, i32 noundef 0, i32 noundef %cond.i29, ptr noundef nonnull %keyBuf, i32 noundef 129, i32 noundef 0)
  %idxprom20 = sext i32 %call19 to i64
  %arrayidx21 = getelementptr inbounds [129 x i8], ptr %keyBuf, i64 0, i64 %idxprom20
  store i8 0, ptr %arrayidx21, align 1
  %call23 = call ptr @ures_getStringByKey_75(ptr noundef %call4, ptr noundef nonnull %keyBuf, ptr noundef nonnull %tzidLen, ptr noundef nonnull %status)
  %8 = load i32, ptr %status, align 4
  %cmp24 = icmp eq i32 %8, 2
  br i1 %cmp24, label %if.then25, label %if.end27

if.then25:                                        ; preds = %if.then16
  store i32 0, ptr %status, align 4
  br label %if.end27

if.end27:                                         ; preds = %if.then10, %if.then16, %if.then25
  %9 = phi i32 [ 0, %if.then25 ], [ %8, %if.then16 ], [ %3, %if.then10 ]
  %tzid.0 = phi ptr [ %call23, %if.then25 ], [ %call23, %if.then16 ], [ null, %if.then10 ]
  %cmp.i40 = icmp slt i32 %9, 1
  %cmp30 = icmp eq ptr %tzid.0, null
  %or.cond = select i1 %cmp.i40, i1 %cmp30, i1 false
  br i1 %or.cond, label %if.then31, label %if.end34

if.then31:                                        ; preds = %if.end27
  %call32 = call ptr @ures_getStringByKey_75(ptr noundef %call4, ptr noundef nonnull @_ZN6icu_75L9gWorldTagE, ptr noundef nonnull %tzidLen, ptr noundef nonnull %status)
  br label %if.end34

if.end34:                                         ; preds = %if.end27, %if.then31
  %tzid.1 = phi ptr [ %call32, %if.then31 ], [ %tzid.0, %if.end27 ]
  call void @ures_close_75(ptr noundef %call4)
  %cmp35 = icmp eq ptr %tzid.1, null
  br i1 %cmp35, label %if.then36, label %if.else

if.then36:                                        ; preds = %if.end34.thread, %if.end34
  call void @_ZN6icu_7513UnicodeString10setToBogusEv(ptr noundef nonnull align 8 dereferenceable(64) %result)
  br label %return

if.else:                                          ; preds = %if.end34
  %10 = load i32, ptr %tzidLen, align 4
  call void @_ZN6icu_7513UnicodeString7unBogusEv(ptr noundef nonnull align 8 dereferenceable(64) %result)
  %fUnion.i.i.i = getelementptr inbounds i8, ptr %result, i64 8
  %11 = load i16, ptr %fUnion.i.i.i, align 8
  %cmp.i.i.i = icmp slt i16 %11, 0
  %12 = ashr i16 %11, 5
  %shr.i.i.i = sext i16 %12 to i32
  %fLength.i.i = getelementptr inbounds i8, ptr %result, i64 12
  %13 = load i32, ptr %fLength.i.i, align 4
  %cond.i.i = select i1 %cmp.i.i.i, i32 %13, i32 %shr.i.i.i
  %call2.i = call noundef nonnull align 8 dereferenceable(64) ptr @_ZN6icu_7513UnicodeString9doReplaceEiiPKDsii(ptr noundef nonnull align 8 dereferenceable(64) %result, i32 noundef 0, i32 noundef %cond.i.i, ptr noundef nonnull %tzid.1, i32 noundef 0, i32 noundef %10)
  br label %return

return:                                           ; preds = %if.then36, %if.else, %if.then
  ret ptr %result
}